; Function Attrs: inlinehint nounwind uwtable
define internal fastcc void @agxbmore(ptr noundef nonnull captures(none) %0, i64 noundef range(i64 -2147483646, 2147483649) %1) unnamed_addr #14 {
  %3 = getelementptr i8, ptr %0, i64 31
  %.val.i = load i8, ptr %3, align 1, !tbaa !7
  %.not.i = icmp eq i8 %.val.i, -1
  br i1 %.not.i, label %agxbsizeof.exit, label %23

agxbsizeof.exit:                                  ; preds = %2
  %4 = getelementptr inbounds nuw i8, ptr %0, i64 16
  %5 = load i64, ptr %4, align 8, !tbaa !7
  %.fr = freeze i64 %5
  %6 = icmp eq i64 %.fr, 0
  %7 = shl i64 %.fr, 1
  %spec.select47 = select i1 %6, i64 8192, i64 %7
  %8 = add i64 %.fr, %1
  %spec.select33 = tail call i64 @llvm.umax.i64(i64 %8, i64 %spec.select47)
  %9 = load ptr, ptr %0, align 8, !tbaa !7
  %10 = icmp eq i64 %spec.select33, 0
  br i1 %10, label %11, label %12

11:                                               ; preds = %agxbsizeof.exit
  tail call void @free(ptr noundef %9) #19
  br label %gv_recalloc.exit

12:                                               ; preds = %agxbsizeof.exit
  %13 = tail call ptr @realloc(ptr noundef %9, i64 noundef %spec.select33) #27
  %14 = icmp eq ptr %13, null
  br i1 %14, label %15, label %18

15:                                               ; preds = %12
  %16 = load ptr, ptr @stderr, align 8, !tbaa !22
  %17 = tail call i32 (ptr, ptr, ...) @fprintf(ptr noundef %16, ptr noundef nonnull @.str.8, i64 noundef %spec.select33) #22
  tail call fastcc void @graphviz_exit() #23
  unreachable

18:                                               ; preds = %12
  %19 = icmp ugt i64 %spec.select33, %.fr
  br i1 %19, label %20, label %gv_recalloc.exit

20:                                               ; preds = %18
  %21 = getelementptr inbounds nuw i8, ptr %13, i64 %.fr
  %22 = sub nuw i64 %spec.select33, %.fr
  tail call void @llvm.memset.p0.i64(ptr nonnull align 1 %21, i8 0, i64 %22, i1 false)
  br label %gv_recalloc.exit

23:                                               ; preds = %2
  %24 = add nsw i64 %1, 31
  %spec.select = tail call i64 @llvm.umax.i64(i64 %24, i64 62)
  %25 = tail call noalias ptr @calloc(i64 noundef %spec.select, i64 noundef 1) #21
  %26 = icmp eq ptr %25, null
  br i1 %26, label %27, label %gv_calloc.exit

27:                                               ; preds = %23
  %28 = load ptr, ptr @stderr, align 8, !tbaa !22
  %29 = tail call i32 (ptr, ptr, ...) @fprintf(ptr noundef %28, ptr noundef nonnull @.str.8, i64 noundef %spec.select) #22
  tail call fastcc void @graphviz_exit() #23
  unreachable

gv_calloc.exit:                                   ; preds = %23
  %30 = zext i8 %.val.i to i64
  tail call void @llvm.memcpy.p0.p0.i64(ptr nonnull align 1 %25, ptr nonnull align 8 %0, i64 %30, i1 false)
  %31 = getelementptr inbounds nuw i8, ptr %0, i64 8
  store i64 %30, ptr %31, align 8, !tbaa !7
  br label %gv_recalloc.exit

gv_recalloc.exit:                                 ; preds = %20, %18, %11, %gv_calloc.exit
  %spec.select3641 = phi i64 [ %spec.select, %gv_calloc.exit ], [ 0, %11 ], [ %spec.select33, %18 ], [ %spec.select33, %20 ]
  %.0 = phi ptr [ %25, %gv_calloc.exit ], [ null, %11 ], [ %13, %18 ], [ %13, %20 ]
  store ptr %.0, ptr %0, align 8, !tbaa !7
  %32 = getelementptr inbounds nuw i8, ptr %0, i64 16
  store i64 %spec.select3641, ptr %32, align 8, !tbaa !7
  store i8 -1, ptr %3, align 1, !tbaa !7
  ret void
}